target datalayout = "e-m:e-p270:32:32-p271:32:32-p272:64:64-i64:64-i128:128-f80:128-n8:16:32:64-S128"
target triple = "x86_64-pc-linux-gnu"

%struct._aim_family = type { i32, i32, ptr, i16, ptr, ptr }
%struct._GList = type { ptr, ptr, ptr }

@.str.110 = private unnamed_addr constant [8 x i8] c"Unknown\00", align 1
@hf_generic_servicereq_service = internal global i32 0, align 4
@families = internal global ptr null, align 8
@.str.535 = private unnamed_addr constant [12 x i8] c"%s (0x%04x)\00", align 1

; Function Attrs: nounwind null_pointer_is_valid sspstrong uwtable
define internal ptr @aim_get_family(i16 noundef zeroext %0) #3 {
  %2 = alloca ptr, align 8
  %3 = alloca i16, align 2
  %4 = alloca ptr, align 8
  %5 = alloca ptr, align 8
  %6 = alloca i32, align 4
  store i16 %0, ptr %3, align 2
  call void @llvm.lifetime.start.p0(i64 8, ptr %4) #13
  %7 = load ptr, ptr @families, align 8
  store ptr %7, ptr %4, align 8
  br label %8

8:                                                ; preds = %30, %1
  %9 = load ptr, ptr %4, align 8
  %10 = icmp ne ptr %9, null
  br i1 %10, label %11, label %31

11:                                               ; preds = %8
  call void @llvm.lifetime.start.p0(i64 8, ptr %5) #13
  %12 = load ptr, ptr %4, align 8
  %13 = getelementptr inbounds nuw %struct._GList, ptr %12, i32 0, i32 0
  %14 = load ptr, ptr %13, align 8
  store ptr %14, ptr %5, align 8
  %15 = load ptr, ptr %5, align 8
  %16 = getelementptr inbounds nuw %struct._aim_family, ptr %15, i32 0, i32 3
  %17 = load i16, ptr %16, align 8
  %18 = zext i16 %17 to i32
  %19 = load i16, ptr %3, align 2
  %20 = zext i16 %19 to i32
  %21 = icmp eq i32 %18, %20
  br i1 %21, label %22, label %24

22:                                               ; preds = %11
  %23 = load ptr, ptr %5, align 8
  store ptr %23, ptr %2, align 8
  store i32 1, ptr %6, align 4
  br label %28

24:                                               ; preds = %11
  %25 = load ptr, ptr %4, align 8
  %26 = getelementptr inbounds nuw %struct._GList, ptr %25, i32 0, i32 1
  %27 = load ptr, ptr %26, align 8
  store ptr %27, ptr %4, align 8
  store i32 0, ptr %6, align 4
  br label %28

28:                                               ; preds = %24, %22
  call void @llvm.lifetime.end.p0(i64 8, ptr %5) #13
  %29 = load i32, ptr %6, align 4
  switch i32 %29, label %32 [
    i32 0, label %30
  ]

30:                                               ; preds = %28
  br label %8, !llvm.loop !8

31:                                               ; preds = %8
  store ptr null, ptr %2, align 8
  store i32 1, ptr %6, align 4
  br label %32

32:                                               ; preds = %31, %28
  call void @llvm.lifetime.end.p0(i64 8, ptr %4) #13
  %33 = load ptr, ptr %2, align 8
  ret ptr %33
}

; Function Attrs: null_pointer_is_valid sspstrong uwtable
define internal i32 @dissect_aim_generic_service_req(ptr noundef %0, ptr noundef %1, ptr noundef %2) #0 {
  %4 = alloca ptr, align 8
  %5 = alloca ptr, align 8
  %6 = alloca ptr, align 8
  %7 = alloca i32, align 4
  %8 = alloca ptr, align 8
  store ptr %0, ptr %4, align 8
  store ptr %1, ptr %5, align 8
  store ptr %2, ptr %6, align 8
  call void @llvm.lifetime.start.p0(i64 4, ptr %7) #13
  store i32 0, ptr %7, align 4
  call void @llvm.lifetime.start.p0(i64 8, ptr %8) #13
  %9 = load ptr, ptr %4, align 8
  %10 = load i32, ptr %7, align 4
  %11 = call zeroext i16 @tvb_get_ntohs(ptr noundef %9, i32 noundef %10)
  %12 = call ptr @aim_get_family(i16 noundef zeroext %11)
  store ptr %12, ptr %8, align 8
  %13 = load ptr, ptr %6, align 8
  %14 = load i32, ptr @hf_generic_servicereq_service, align 4
  %15 = load ptr, ptr %4, align 8
  %16 = load i32, ptr %7, align 4
  %17 = load ptr, ptr %4, align 8
  %18 = load i32, ptr %7, align 4
  %19 = call zeroext i16 @tvb_get_ntohs(ptr noundef %17, i32 noundef %18)
  %20 = zext i16 %19 to i32
  %21 = load ptr, ptr %8, align 8
  %22 = icmp ne ptr %21, null
  br i1 %22, label %23, label %27

23:                                               ; preds = %3
  %24 = load ptr, ptr %8, align 8
  %25 = getelementptr inbounds nuw %struct._aim_family, ptr %24, i32 0, i32 4
  %26 = load ptr, ptr %25, align 8
  br label %28

27:                                               ; preds = %3
  br label %28

28:                                               ; preds = %27, %23
  %29 = phi ptr [ %26, %23 ], [ @.str.110, %27 ]
  %30 = load ptr, ptr %4, align 8
  %31 = load i32, ptr %7, align 4
  %32 = call zeroext i16 @tvb_get_ntohs(ptr noundef %30, i32 noundef %31)
  %33 = zext i16 %32 to i32
  %34 = call ptr (ptr, i32, ptr, i32, i32, i32, ptr, ...) @proto_tree_add_uint_format(ptr noundef %13, i32 noundef %14, ptr noundef %15, i32 noundef %16, i32 noundef 2, i32 noundef %20, ptr noundef @.str.535, ptr noundef %29, i32 noundef %33)
  %35 = load i32, ptr %7, align 4
  %36 = add i32 %35, 2
  store i32 %36, ptr %7, align 4
  %37 = load i32, ptr %7, align 4
  call void @llvm.lifetime.end.p0(i64 8, ptr %8) #13
  call void @llvm.lifetime.end.p0(i64 4, ptr %7) #13
  ret i32 %37
}