; Function Attrs: null_pointer_is_valid sspstrong uwtable
define internal noundef i32 @dissect_aim_generic_service_req(ptr noundef %0, ptr readnone captures(none) %1, ptr noundef %2) #0 {
  %4 = tail call zeroext i16 @tvb_get_ntohs(ptr noundef %0, i32 noundef 0)
  %.0813.i = load ptr, ptr @families, align 8
  %.not14.i = icmp eq ptr %.0813.i, null
  br i1 %.not14.i, label %aim_get_family.exit.thread, label %.lr.ph.i

5:                                                ; preds = %.lr.ph.i
  %6 = getelementptr inbounds nuw i8, ptr %.0815.i, i64 8
  %.08.i = load ptr, ptr %6, align 8
  %.not.i = icmp eq ptr %.08.i, null
  br i1 %.not.i, label %aim_get_family.exit.thread, label %.lr.ph.i

.lr.ph.i:                                         ; preds = %3, %5
  %.0815.i = phi ptr [ %.08.i, %5 ], [ %.0813.i, %3 ]
  %7 = load ptr, ptr %.0815.i, align 8
  %8 = getelementptr inbounds nuw i8, ptr %7, i64 16
  %9 = load i16, ptr %8, align 8
  %.not10.i = icmp eq i16 %9, %4
  br i1 %.not10.i, label %aim_get_family.exit, label %5

aim_get_family.exit.thread:                       ; preds = %5, %3
  %10 = load i32, ptr @hf_generic_servicereq_service, align 4
  %11 = tail call zeroext i16 @tvb_get_ntohs(ptr noundef %0, i32 noundef 0)
  br label %17

aim_get_family.exit:                              ; preds = %.lr.ph.i
  %12 = load i32, ptr @hf_generic_servicereq_service, align 4
  %13 = tail call zeroext i16 @tvb_get_ntohs(ptr noundef %0, i32 noundef 0)
  %.not = icmp eq ptr %7, null
  br i1 %.not, label %17, label %14

14:                                               ; preds = %aim_get_family.exit
  %15 = getelementptr inbounds nuw i8, ptr %7, i64 24
  %16 = load ptr, ptr %15, align 8
  br label %17

17:                                               ; preds = %aim_get_family.exit.thread, %aim_get_family.exit, %14
  %18 = phi i16 [ %13, %14 ], [ %13, %aim_get_family.exit ], [ %11, %aim_get_family.exit.thread ]
  %19 = phi i32 [ %12, %14 ], [ %12, %aim_get_family.exit ], [ %10, %aim_get_family.exit.thread ]
  %20 = phi ptr [ %16, %14 ], [ @.str.110, %aim_get_family.exit ], [ @.str.110, %aim_get_family.exit.thread ]
  %21 = zext i16 %18 to i32
  %22 = tail call zeroext i16 @tvb_get_ntohs(ptr noundef %0, i32 noundef 0)
  %23 = zext i16 %22 to i32
  %24 = tail call ptr (ptr, i32, ptr, i32, i32, i32, ptr, ...) @proto_tree_add_uint_format(ptr noundef %2, i32 noundef %19, ptr noundef %0, i32 noundef 0, i32 noundef 2, i32 noundef %21, ptr noundef nonnull @.str.535, ptr noundef %20, i32 noundef %23)
  ret i32 2
}